target datalayout = "e-m:e-p270:32:32-p271:32:32-p272:64:64-i64:64-i128:128-f80:128-n8:16:32:64-S128"
target triple = "x86_64-pc-linux-gnu"

%struct.Type_ = type { i32, ptr, ptr, ptr, %union.anon, ptr, ptr, %union.anon.0 }
%union.anon = type { ptr }
%union.anon.0 = type { %struct.TypeFunction }
%struct.TypeFunction = type { ptr, ptr, ptr }
%union.SourceSpan = type { i64 }
%union.anon.53 = type { %struct.anon.54 }
%struct.anon.54 = type { ptr, ptr }
%union.anon.2 = type { ptr }
%union.anon.3 = type { i16 }
%union.anon.4 = type { %struct.FuncDecl }
%struct.FuncDecl = type { i32, [4 x i8], %struct.Signature_, i32, i32, %union.anon.11 }
%struct.Signature_ = type <{ %struct.CalleeAttributes, i16, i8, i32, i32, [4 x i8], ptr }>
%struct.CalleeAttributes = type { i8 }
%union.anon.11 = type { %struct.anon.12 }
%struct.anon.12 = type { i16, %union.anon.13 }
%union.anon.13 = type { ptr }
%struct.Decl_ = type { ptr, ptr, %union.SourceSpan, i64, %union.anon.2, i32, %union.anon.3, i64, ptr, ptr, ptr, %union.anon.4 }
%struct.TypeInfo_ = type { i16, ptr, %union.SourceSpan, %union.anon.53 }
%struct.VHeader_ = type { i32, i32, [0 x i8] }
%struct.anon.5 = type { ptr, ptr, %union.anon.6 }
%union.anon.6 = type { %struct.BitStructDecl }
%struct.BitStructDecl = type { ptr, ptr, i8 }
%struct.StructDecl = type { i32, ptr, i32, i16 }

; Function Attrs: nounwind uwtable
define dso_local i32 @decl_find_member_offset(ptr noundef %0, ptr noundef %1) #0 {
  %3 = alloca i32, align 4
  %4 = alloca ptr, align 8
  %5 = alloca ptr, align 8
  %6 = alloca i32, align 4
  %7 = alloca ptr, align 8
  %8 = alloca ptr, align 8
  %9 = alloca ptr, align 8
  %10 = alloca i32, align 4
  %11 = alloca i32, align 4
  %12 = alloca ptr, align 8
  %13 = alloca i32, align 4
  store ptr %0, ptr %7, align 8
  store ptr %1, ptr %8, align 8
  br label %14

14:                                               ; preds = %21, %2
  %15 = load ptr, ptr %7, align 8
  %16 = getelementptr inbounds %struct.Decl_, ptr %15, i32 0, i32 3
  %17 = load i64, ptr %16, align 8
  %18 = and i64 %17, 127
  %19 = trunc i64 %18 to i32
  %20 = icmp eq i32 %19, 10
  br i1 %20, label %21, label %30

21:                                               ; preds = %14
  %22 = load ptr, ptr %7, align 8
  %23 = getelementptr inbounds %struct.Decl_, ptr %22, i32 0, i32 11
  %24 = getelementptr inbounds %struct.anon.5, ptr %23, i32 0, i32 2
  %25 = load ptr, ptr %24, align 8
  %26 = getelementptr inbounds %struct.TypeInfo_, ptr %25, i32 0, i32 1
  %27 = load ptr, ptr %26, align 8
  %28 = getelementptr inbounds %struct.Type_, ptr %27, i32 0, i32 7
  %29 = load ptr, ptr %28, align 8
  store ptr %29, ptr %7, align 8
  br label %14, !llvm.loop !17

30:                                               ; preds = %14
  store ptr null, ptr %9, align 8
  %31 = load ptr, ptr %7, align 8
  %32 = getelementptr inbounds %struct.Decl_, ptr %31, i32 0, i32 3
  %33 = load i64, ptr %32, align 8
  %34 = and i64 %33, 127
  %35 = trunc i64 %34 to i32
  switch i32 %35, label %48 [
    i32 2, label %36
    i32 23, label %42
    i32 25, label %42
  ]

36:                                               ; preds = %30
  %37 = load ptr, ptr %7, align 8
  %38 = getelementptr inbounds %struct.Decl_, ptr %37, i32 0, i32 11
  %39 = getelementptr inbounds %struct.anon.5, ptr %38, i32 0, i32 2
  %40 = getelementptr inbounds %struct.BitStructDecl, ptr %39, i32 0, i32 1
  %41 = load ptr, ptr %40, align 8
  store ptr %41, ptr %9, align 8
  br label %49

42:                                               ; preds = %30, %30
  %43 = load ptr, ptr %7, align 8
  %44 = getelementptr inbounds %struct.Decl_, ptr %43, i32 0, i32 11
  %45 = getelementptr inbounds %struct.anon.5, ptr %44, i32 0, i32 2
  %46 = getelementptr inbounds %struct.StructDecl, ptr %45, i32 0, i32 1
  %47 = load ptr, ptr %46, align 8
  store ptr %47, ptr %9, align 8
  br label %49

48:                                               ; preds = %30
  store i32 -1, ptr %6, align 4
  br label %107

49:                                               ; preds = %42, %36
  %50 = load ptr, ptr %9, align 8
  store ptr %50, ptr %4, align 8
  %51 = load ptr, ptr %4, align 8
  %52 = icmp ne ptr %51, null
  br i1 %52, label %54, label %53

53:                                               ; preds = %49
  store i32 0, ptr %3, align 4
  br label %59

54:                                               ; preds = %49
  %55 = load ptr, ptr %4, align 8
  store ptr %55, ptr %5, align 8
  %56 = load ptr, ptr %5, align 8
  %57 = getelementptr inbounds %struct.VHeader_, ptr %56, i64 -1
  %58 = load i32, ptr %57, align 4
  store i32 %58, ptr %3, align 4
  br label %59

59:                                               ; preds = %54, %53
  %60 = load i32, ptr %3, align 4
  store i32 %60, ptr %10, align 4
  store i32 0, ptr %11, align 4
  br label %61

61:                                               ; preds = %103, %59
  %62 = load i32, ptr %11, align 4
  %63 = load i32, ptr %10, align 4
  %64 = icmp ult i32 %62, %63
  br i1 %64, label %65, label %106

65:                                               ; preds = %61
  %66 = load ptr, ptr %9, align 8
  %67 = load i32, ptr %11, align 4
  %68 = zext i32 %67 to i64
  %69 = getelementptr inbounds ptr, ptr %66, i64 %68
  %70 = load ptr, ptr %69, align 8
  store ptr %70, ptr %12, align 8
  %71 = load ptr, ptr %12, align 8
  %72 = load ptr, ptr %8, align 8
  %73 = icmp eq ptr %71, %72
  br i1 %73, label %74, label %80

74:                                               ; preds = %65
  %75 = load ptr, ptr %8, align 8
  %76 = getelementptr inbounds %struct.Decl_, ptr %75, i32 0, i32 7
  %77 = load i64, ptr %76, align 8
  %78 = and i64 %77, 4294967295
  %79 = trunc i64 %78 to i32
  store i32 %79, ptr %6, align 4
  br label %107

80:                                               ; preds = %65
  %81 = load ptr, ptr %12, align 8
  %82 = getelementptr inbounds %struct.Decl_, ptr %81, i32 0, i32 3
  %83 = load i64, ptr %82, align 8
  %84 = and i64 %83, 127
  %85 = trunc i64 %84 to i32
  %86 = icmp ne i32 %85, 26
  br i1 %86, label %87, label %102

87:                                               ; preds = %80
  %88 = load ptr, ptr %12, align 8
  %89 = load ptr, ptr %8, align 8
  %90 = call i32 @decl_find_member_offset(ptr noundef %88, ptr noundef %89)
  store i32 %90, ptr %13, align 4
  %91 = load i32, ptr %13, align 4
  %92 = icmp ne i32 %91, -1
  br i1 %92, label %93, label %101

93:                                               ; preds = %87
  %94 = load i32, ptr %13, align 4
  %95 = load ptr, ptr %12, align 8
  %96 = getelementptr inbounds %struct.Decl_, ptr %95, i32 0, i32 7
  %97 = load i64, ptr %96, align 8
  %98 = and i64 %97, 4294967295
  %99 = trunc i64 %98 to i32
  %100 = add i32 %94, %99
  store i32 %100, ptr %6, align 4
  br label %107

101:                                              ; preds = %87
  br label %102

102:                                              ; preds = %101, %80
  br label %103

103:                                              ; preds = %102
  %104 = load i32, ptr %11, align 4
  %105 = add i32 %104, 1
  store i32 %105, ptr %11, align 4
  br label %61, !llvm.loop !18

106:                                              ; preds = %61
  store i32 -1, ptr %6, align 4
  br label %107

107:                                              ; preds = %106, %93, %74, %48
  %108 = load i32, ptr %6, align 4
  ret i32 %108
}