; Function Attrs: nofree nosync nounwind memory(read, inaccessiblemem: none) uwtable
define dso_local i32 @decl_find_member_offset(ptr nocapture noundef readonly %0, ptr noundef %1) local_unnamed_addr #8 {
  br label %3

3:                                                ; preds = %8, %2
  %.026 = phi ptr [ %0, %2 ], [ %14, %8 ]
  %4 = getelementptr inbounds i8, ptr %.026, i64 24
  %5 = load i64, ptr %4, align 8
  %6 = trunc i64 %5 to i32
  %7 = and i32 %6, 127
  switch i32 %7, label %.loopexit [
    i32 10, label %8
    i32 2, label %15
    i32 23, label %15
    i32 25, label %15
  ]

8:                                                ; preds = %3
  %9 = getelementptr inbounds i8, ptr %.026, i64 96
  %10 = load ptr, ptr %9, align 8
  %11 = getelementptr inbounds i8, ptr %10, i64 8
  %12 = load ptr, ptr %11, align 8
  %13 = getelementptr inbounds i8, ptr %12, i64 56
  %14 = load ptr, ptr %13, align 8
  br label %3, !llvm.loop !17

15:                                               ; preds = %3, %3, %3
  %.027.in = getelementptr inbounds i8, ptr %.026, i64 104
  %.027 = load ptr, ptr %.027.in, align 8
  %.not = icmp eq ptr %.027, null
  br i1 %.not, label %.loopexit, label %16

16:                                               ; preds = %15
  %17 = getelementptr inbounds i8, ptr %.027, i64 -8
  %18 = load i32, ptr %17, align 4
  %.not39 = icmp eq i32 %18, 0
  br i1 %.not39, label %.loopexit, label %.lr.ph.preheader

.lr.ph.preheader:                                 ; preds = %16
  %wide.trip.count = zext i32 %18 to i64
  br label %.lr.ph

.lr.ph:                                           ; preds = %.lr.ph.preheader, %37
  %indvars.iv = phi i64 [ 0, %.lr.ph.preheader ], [ %indvars.iv.next, %37 ]
  %19 = getelementptr inbounds ptr, ptr %.027, i64 %indvars.iv
  %20 = load ptr, ptr %19, align 8
  %21 = icmp eq ptr %20, %1
  br i1 %21, label %22, label %26

22:                                               ; preds = %.lr.ph
  %23 = getelementptr inbounds i8, ptr %1, i64 48
  %24 = load i64, ptr %23, align 8
  %25 = trunc i64 %24 to i32
  br label %.loopexit

26:                                               ; preds = %.lr.ph
  %27 = getelementptr inbounds i8, ptr %20, i64 24
  %28 = load i64, ptr %27, align 8
  %29 = and i64 %28, 127
  %.not32 = icmp eq i64 %29, 26
  br i1 %.not32, label %37, label %30

30:                                               ; preds = %26
  %31 = tail call i32 @decl_find_member_offset(ptr noundef nonnull %20, ptr noundef %1)
  %.not33 = icmp eq i32 %31, -1
  br i1 %.not33, label %37, label %32

32:                                               ; preds = %30
  %33 = getelementptr inbounds i8, ptr %20, i64 48
  %34 = load i64, ptr %33, align 8
  %35 = trunc i64 %34 to i32
  %36 = add i32 %31, %35
  br label %.loopexit

37:                                               ; preds = %26, %30
  %indvars.iv.next = add nuw nsw i64 %indvars.iv, 1
  %exitcond.not = icmp eq i64 %indvars.iv.next, %wide.trip.count
  br i1 %exitcond.not, label %.loopexit, label %.lr.ph, !llvm.loop !18

.loopexit:                                        ; preds = %3, %37, %15, %16, %32, %22
  %.024 = phi i32 [ %25, %22 ], [ %36, %32 ], [ -1, %16 ], [ -1, %15 ], [ -1, %37 ], [ -1, %3 ]
  ret i32 %.024
}